target datalayout = "e-m:e-p270:32:32-p271:32:32-p272:64:64-i64:64-i128:128-f80:128-n8:16:32:64-S128"
target triple = "x86_64-pc-linux-gnu"

%class.tbv_manager = type { %class.fixed_bit_vector_manager, %class.ptr_vector }
%class.fixed_bit_vector_manager = type <{ %class.small_object_allocator, i32, i32, i32, i32, %class.fixed_bit_vector, [4 x i8] }>
%class.small_object_allocator = type { [32 x ptr], [32 x ptr], i64 }
%class.fixed_bit_vector = type { [1 x i32] }
%class.ptr_vector = type { %class.vector }
%class.vector = type { ptr }

; Function Attrs: mustprogress nounwind uwtable
define linkonce_odr hidden noundef i32 @_ZN16fixed_bit_vector12get_pos_maskEj(i32 noundef %0) #4 comdat align 2 {
  %2 = alloca i32, align 4
  store i32 %0, ptr %2, align 4, !tbaa !20
  %3 = load i32, ptr %2, align 4, !tbaa !20
  %4 = urem i32 %3, 32
  %5 = shl i32 1, %4
  ret i32 %5
}

; Function Attrs: mustprogress nounwind uwtable
define linkonce_odr hidden noundef nonnull align 4 dereferenceable(4) ptr @_ZN16fixed_bit_vector12get_bit_wordEj(ptr noundef nonnull align 4 dereferenceable(4) %0, i32 noundef %1) #4 comdat align 2 {
  %3 = alloca ptr, align 8
  %4 = alloca i32, align 4
  store ptr %0, ptr %3, align 8, !tbaa !16
  store i32 %1, ptr %4, align 4, !tbaa !20
  %5 = load ptr, ptr %3, align 8
  %6 = getelementptr inbounds nuw %class.fixed_bit_vector, ptr %5, i32 0, i32 0
  %7 = load i32, ptr %4, align 4, !tbaa !20
  %8 = udiv i32 %7, 32
  %9 = zext i32 %8 to i64
  %10 = getelementptr inbounds nuw [1 x i32], ptr %6, i64 0, i64 %9
  ret ptr %10
}

; Function Attrs: mustprogress uwtable
define linkonce_odr hidden void @_ZN16fixed_bit_vector3setEjb(ptr noundef nonnull align 4 dereferenceable(4) %0, i32 noundef %1, i1 noundef zeroext %2) #6 comdat align 2 {
  %4 = alloca ptr, align 8
  %5 = alloca i32, align 4
  %6 = alloca i8, align 1
  %7 = alloca i32, align 4
  store ptr %0, ptr %4, align 8, !tbaa !16
  store i32 %1, ptr %5, align 4, !tbaa !20
  %8 = zext i1 %2 to i8
  store i8 %8, ptr %6, align 1, !tbaa !3
  %9 = load ptr, ptr %4, align 8
  call void @llvm.lifetime.start.p0(i64 4, ptr %7) #3
  %10 = load i8, ptr %6, align 1, !tbaa !3, !range !39, !noundef !40
  %11 = trunc i8 %10 to i1
  %12 = zext i1 %11 to i32
  store i32 %12, ptr %7, align 4, !tbaa !20
  %13 = load i32, ptr %7, align 4, !tbaa !20
  %14 = sub nsw i32 0, %13
  %15 = load i32, ptr %5, align 4, !tbaa !20
  %16 = call noundef nonnull align 4 dereferenceable(4) ptr @_ZN16fixed_bit_vector12get_bit_wordEj(ptr noundef nonnull align 4 dereferenceable(4) %9, i32 noundef %15)
  %17 = load i32, ptr %16, align 4, !tbaa !20
  %18 = xor i32 %14, %17
  %19 = load i32, ptr %5, align 4, !tbaa !20
  %20 = call noundef i32 @_ZN16fixed_bit_vector12get_pos_maskEj(i32 noundef %19)
  %21 = and i32 %18, %20
  %22 = load i32, ptr %5, align 4, !tbaa !20
  %23 = call noundef nonnull align 4 dereferenceable(4) ptr @_ZN16fixed_bit_vector12get_bit_wordEj(ptr noundef nonnull align 4 dereferenceable(4) %9, i32 noundef %22)
  %24 = load i32, ptr %23, align 4, !tbaa !20
  %25 = xor i32 %24, %21
  store i32 %25, ptr %23, align 4, !tbaa !20
  call void @llvm.lifetime.end.p0(i64 4, ptr %7) #3
  ret void
}

; Function Attrs: mustprogress uwtable
define linkonce_odr hidden void @_ZN24fixed_bit_vector_manager3setER16fixed_bit_vectorjb(ptr noundef nonnull align 8 dereferenceable(540) %0, ptr noundef nonnull align 4 dereferenceable(4) %1, i32 noundef %2, i1 noundef zeroext %3) #6 comdat align 2 {
  %5 = alloca ptr, align 8
  %6 = alloca ptr, align 8
  %7 = alloca i32, align 4
  %8 = alloca i8, align 1
  store ptr %0, ptr %5, align 8, !tbaa !12
  store ptr %1, ptr %6, align 8, !tbaa !16
  store i32 %2, ptr %7, align 4, !tbaa !20
  %9 = zext i1 %3 to i8
  store i8 %9, ptr %8, align 1, !tbaa !3
  %10 = load ptr, ptr %6, align 8, !tbaa !16
  %11 = load i32, ptr %7, align 4, !tbaa !20
  %12 = load i8, ptr %8, align 1, !tbaa !3, !range !39, !noundef !40
  %13 = trunc i8 %12 to i1
  call void @_ZN16fixed_bit_vector3setEjb(ptr noundef nonnull align 4 dereferenceable(4) %10, i32 noundef %11, i1 noundef zeroext %13)
  ret void
}

; Function Attrs: mustprogress uwtable
define hidden void @_ZN11tbv_manager3setER3tbvj4tbit(ptr noundef nonnull align 8 dereferenceable(552) %0, ptr noundef nonnull align 4 dereferenceable(4) %1, i32 noundef %2, i32 noundef %3) #6 align 2 {
  %5 = alloca ptr, align 8
  %6 = alloca ptr, align 8
  %7 = alloca i32, align 4
  %8 = alloca i32, align 4
  store ptr %0, ptr %5, align 8, !tbaa !7
  store ptr %1, ptr %6, align 8, !tbaa !14
  store i32 %2, ptr %7, align 4, !tbaa !20
  store i32 %3, ptr %8, align 4, !tbaa !26
  %9 = load ptr, ptr %5, align 8
  %10 = getelementptr inbounds nuw %class.tbv_manager, ptr %9, i32 0, i32 0
  %11 = load ptr, ptr %6, align 8, !tbaa !14
  %12 = load i32, ptr %7, align 4, !tbaa !20
  %13 = mul i32 2, %12
  %14 = load i32, ptr %8, align 4, !tbaa !26
  %15 = and i32 %14, 2
  %16 = icmp ne i32 %15, 0
  call void @_ZN24fixed_bit_vector_manager3setER16fixed_bit_vectorjb(ptr noundef nonnull align 8 dereferenceable(540) %10, ptr noundef nonnull align 4 dereferenceable(4) %11, i32 noundef %13, i1 noundef zeroext %16)
  %17 = getelementptr inbounds nuw %class.tbv_manager, ptr %9, i32 0, i32 0
  %18 = load ptr, ptr %6, align 8, !tbaa !14
  %19 = load i32, ptr %7, align 4, !tbaa !20
  %20 = mul i32 2, %19
  %21 = add i32 %20, 1
  %22 = load i32, ptr %8, align 4, !tbaa !26
  %23 = and i32 %22, 1
  %24 = icmp ne i32 %23, 0
  call void @_ZN24fixed_bit_vector_manager3setER16fixed_bit_vectorjb(ptr noundef nonnull align 8 dereferenceable(540) %17, ptr noundef nonnull align 4 dereferenceable(4) %18, i32 noundef %21, i1 noundef zeroext %24)
  ret void
}