; Function Attrs: mustprogress nofree norecurse nosync nounwind willreturn memory(argmem: readwrite) uwtable
define hidden void @_ZN11tbv_manager3setER3tbvj4tbit(ptr noundef nonnull readnone align 8 captures(none) dereferenceable(552) %0, ptr noundef nonnull align 4 captures(none) dereferenceable(4) %1, i32 noundef %2, i32 noundef %3) local_unnamed_addr #7 align 2 {
  %5 = shl i32 %2, 1
  %6 = shl i32 %3, 30
  %sext = ashr i32 %6, 31
  %7 = lshr i32 %5, 5
  %8 = zext nneg i32 %7 to i64
  %9 = getelementptr inbounds nuw [1 x i32], ptr %1, i64 0, i64 %8
  %10 = load i32, ptr %9, align 4, !tbaa !17
  %11 = xor i32 %10, %sext
  %12 = and i32 %5, 30
  %13 = shl nuw nsw i32 1, %12
  %14 = and i32 %11, %13
  %15 = and i32 %3, 1
  %sext7 = sub nsw i32 0, %15
  %16 = xor i32 %10, %sext7
  %17 = shl nuw i32 2, %12
  %18 = and i32 %16, %17
  %19 = or disjoint i32 %14, %18
  %20 = xor i32 %19, %10
  store i32 %20, ptr %9, align 4, !tbaa !17
  ret void
}